target datalayout = "e-m:e-p270:32:32-p271:32:32-p272:64:64-i64:64-i128:128-f80:128-n8:16:32:64-S128"
target triple = "x86_64-pc-linux-gnu"

%struct.MyTreeNode = type { ptr, ptr, i32, i32, i32 }

@.str.366 = private unnamed_addr constant [3 x i8] c"%d\00", align 1
@_ZZL20ShowDemoWindowTablesvE15tree_node_flags = internal global i32 16384, align 4
@.str.1790 = private unnamed_addr constant [3 x i8] c"--\00", align 1

; Function Attrs: mustprogress uwtable
define internal void @_ZZL20ShowDemoWindowTablesvEN10MyTreeNode11DisplayNodeEPKS_S1_(ptr noundef %0, ptr noundef %1) #0 align 2 {
  %3 = alloca ptr, align 8
  %4 = alloca ptr, align 8
  %5 = alloca i8, align 1
  %6 = alloca i8, align 1
  %7 = alloca i32, align 4
  store ptr %0, ptr %3, align 8, !tbaa !527
  store ptr %1, ptr %4, align 8, !tbaa !527
  call void @_ZN5ImGui12TableNextRowEif(i32 noundef 0, float noundef 0.000000e+00)
  %8 = call noundef zeroext i1 @_ZN5ImGui15TableNextColumnEv()
  call void @llvm.lifetime.start.p0(i64 1, ptr %5) #7
  %9 = load ptr, ptr %3, align 8, !tbaa !527
  %10 = getelementptr inbounds nuw %struct.MyTreeNode, ptr %9, i32 0, i32 4
  %11 = load i32, ptr %10, align 8, !tbaa !529
  %12 = icmp sgt i32 %11, 0
  %13 = zext i1 %12 to i8
  store i8 %13, ptr %5, align 1, !tbaa !35
  %14 = load i8, ptr %5, align 1, !tbaa !35, !range !13, !noundef !14
  %15 = trunc i8 %14 to i1
  br i1 %15, label %16, label %53

16:                                               ; preds = %2
  call void @llvm.lifetime.start.p0(i64 1, ptr %6) #7
  %17 = load ptr, ptr %3, align 8, !tbaa !527
  %18 = getelementptr inbounds nuw %struct.MyTreeNode, ptr %17, i32 0, i32 0
  %19 = load ptr, ptr %18, align 8, !tbaa !531
  %20 = load i32, ptr @_ZZL20ShowDemoWindowTablesvE15tree_node_flags, align 4, !tbaa !33
  %21 = call noundef zeroext i1 @_ZN5ImGui10TreeNodeExEPKci(ptr noundef %19, i32 noundef %20)
  %22 = zext i1 %21 to i8
  store i8 %22, ptr %6, align 1, !tbaa !35
  %23 = call noundef zeroext i1 @_ZN5ImGui15TableNextColumnEv()
  call void (ptr, ...) @_ZN5ImGui12TextDisabledEPKcz(ptr noundef @.str.1790)
  %24 = call noundef zeroext i1 @_ZN5ImGui15TableNextColumnEv()
  %25 = load ptr, ptr %3, align 8, !tbaa !527
  %26 = getelementptr inbounds nuw %struct.MyTreeNode, ptr %25, i32 0, i32 1
  %27 = load ptr, ptr %26, align 8, !tbaa !532
  call void @_ZN5ImGui15TextUnformattedEPKcS1_(ptr noundef %27, ptr noundef null)
  %28 = load i8, ptr %6, align 1, !tbaa !35, !range !13, !noundef !14
  %29 = trunc i8 %28 to i1
  br i1 %29, label %30, label %52

30:                                               ; preds = %16
  call void @llvm.lifetime.start.p0(i64 4, ptr %7) #7
  store i32 0, ptr %7, align 4, !tbaa !33
  br label %31

31:                                               ; preds = %48, %30
  %32 = load i32, ptr %7, align 4, !tbaa !33
  %33 = load ptr, ptr %3, align 8, !tbaa !527
  %34 = getelementptr inbounds nuw %struct.MyTreeNode, ptr %33, i32 0, i32 4
  %35 = load i32, ptr %34, align 8, !tbaa !529
  %36 = icmp slt i32 %32, %35
  br i1 %36, label %38, label %37

37:                                               ; preds = %31
  call void @llvm.lifetime.end.p0(i64 4, ptr %7) #7
  br label %51

38:                                               ; preds = %31
  %39 = load ptr, ptr %4, align 8, !tbaa !527
  %40 = load ptr, ptr %3, align 8, !tbaa !527
  %41 = getelementptr inbounds nuw %struct.MyTreeNode, ptr %40, i32 0, i32 3
  %42 = load i32, ptr %41, align 4, !tbaa !533
  %43 = load i32, ptr %7, align 4, !tbaa !33
  %44 = add nsw i32 %42, %43
  %45 = sext i32 %44 to i64
  %46 = getelementptr inbounds %struct.MyTreeNode, ptr %39, i64 %45
  %47 = load ptr, ptr %4, align 8, !tbaa !527
  call void @_ZZL20ShowDemoWindowTablesvEN10MyTreeNode11DisplayNodeEPKS_S1_(ptr noundef %46, ptr noundef %47)
  br label %48

48:                                               ; preds = %38
  %49 = load i32, ptr %7, align 4, !tbaa !33
  %50 = add nsw i32 %49, 1
  store i32 %50, ptr %7, align 4, !tbaa !33
  br label %31, !llvm.loop !534

51:                                               ; preds = %37
  call void @_ZN5ImGui7TreePopEv()
  br label %52

52:                                               ; preds = %51, %16
  call void @llvm.lifetime.end.p0(i64 1, ptr %6) #7
  br label %70

53:                                               ; preds = %2
  %54 = load ptr, ptr %3, align 8, !tbaa !527
  %55 = getelementptr inbounds nuw %struct.MyTreeNode, ptr %54, i32 0, i32 0
  %56 = load ptr, ptr %55, align 8, !tbaa !531
  %57 = load i32, ptr @_ZZL20ShowDemoWindowTablesvE15tree_node_flags, align 4, !tbaa !33
  %58 = or i32 %57, 256
  %59 = or i32 %58, 512
  %60 = or i32 %59, 8
  %61 = call noundef zeroext i1 @_ZN5ImGui10TreeNodeExEPKci(ptr noundef %56, i32 noundef %60)
  %62 = call noundef zeroext i1 @_ZN5ImGui15TableNextColumnEv()
  %63 = load ptr, ptr %3, align 8, !tbaa !527
  %64 = getelementptr inbounds nuw %struct.MyTreeNode, ptr %63, i32 0, i32 2
  %65 = load i32, ptr %64, align 8, !tbaa !535
  call void (ptr, ...) @_ZN5ImGui4TextEPKcz(ptr noundef @.str.366, i32 noundef %65)
  %66 = call noundef zeroext i1 @_ZN5ImGui15TableNextColumnEv()
  %67 = load ptr, ptr %3, align 8, !tbaa !527
  %68 = getelementptr inbounds nuw %struct.MyTreeNode, ptr %67, i32 0, i32 1
  %69 = load ptr, ptr %68, align 8, !tbaa !532
  call void @_ZN5ImGui15TextUnformattedEPKcS1_(ptr noundef %69, ptr noundef null)
  br label %70

70:                                               ; preds = %53, %52
  call void @llvm.lifetime.end.p0(i64 1, ptr %5) #7
  ret void
}