; Function Attrs: mustprogress uwtable
define internal fastcc void @_ZZL20ShowDemoWindowTablesvEN10MyTreeNode11DisplayNodeEPKS_S1_(ptr noundef readonly captures(none) %0) unnamed_addr #2 align 2 {
  tail call void @_ZN5ImGui12TableNextRowEif(i32 noundef 0, float noundef 0.000000e+00)
  %2 = tail call noundef zeroext i1 @_ZN5ImGui15TableNextColumnEv()
  %3 = getelementptr inbounds nuw i8, ptr %0, i64 24
  %4 = load i32, ptr %3, align 8, !tbaa !492
  %5 = icmp sgt i32 %4, 0
  %6 = load ptr, ptr %0, align 8, !tbaa !494
  %7 = load i32, ptr @_ZZL20ShowDemoWindowTablesvE15tree_node_flags, align 4, !tbaa !54
  br i1 %5, label %8, label %25

8:                                                ; preds = %1
  %9 = tail call noundef zeroext i1 @_ZN5ImGui10TreeNodeExEPKci(ptr noundef %6, i32 noundef %7)
  %10 = tail call noundef zeroext i1 @_ZN5ImGui15TableNextColumnEv()
  tail call void (ptr, ...) @_ZN5ImGui12TextDisabledEPKcz(ptr noundef nonnull @.str.1790)
  %11 = tail call noundef zeroext i1 @_ZN5ImGui15TableNextColumnEv()
  %12 = getelementptr inbounds nuw i8, ptr %0, i64 8
  %13 = load ptr, ptr %12, align 8, !tbaa !495
  tail call void @_ZN5ImGui15TextUnformattedEPKcS1_(ptr noundef %13, ptr noundef null)
  br i1 %9, label %.preheader, label %34

.preheader:                                       ; preds = %8
  %14 = load i32, ptr %3, align 8, !tbaa !492
  %15 = icmp sgt i32 %14, 0
  br i1 %15, label %.lr.ph, label %._crit_edge

.lr.ph:                                           ; preds = %.preheader
  %16 = getelementptr inbounds nuw i8, ptr %0, i64 20
  br label %17

._crit_edge:                                      ; preds = %17, %.preheader
  tail call void @_ZN5ImGui7TreePopEv()
  br label %34

17:                                               ; preds = %.lr.ph, %17
  %.01 = phi i32 [ 0, %.lr.ph ], [ %22, %17 ]
  %18 = load i32, ptr %16, align 4, !tbaa !496
  %19 = add nsw i32 %18, %.01
  %20 = sext i32 %19 to i64
  %21 = getelementptr inbounds %struct.MyTreeNode, ptr @_ZZL20ShowDemoWindowTablesvE5nodes, i64 %20
  tail call fastcc void @_ZZL20ShowDemoWindowTablesvEN10MyTreeNode11DisplayNodeEPKS_S1_(ptr noundef nonnull %21)
  %22 = add nuw nsw i32 %.01, 1
  %23 = load i32, ptr %3, align 8, !tbaa !492
  %24 = icmp slt i32 %22, %23
  br i1 %24, label %17, label %._crit_edge, !llvm.loop !497

25:                                               ; preds = %1
  %26 = or i32 %7, 776
  %27 = tail call noundef zeroext i1 @_ZN5ImGui10TreeNodeExEPKci(ptr noundef %6, i32 noundef %26)
  %28 = tail call noundef zeroext i1 @_ZN5ImGui15TableNextColumnEv()
  %29 = getelementptr inbounds nuw i8, ptr %0, i64 16
  %30 = load i32, ptr %29, align 8, !tbaa !498
  tail call void (ptr, ...) @_ZN5ImGui4TextEPKcz(ptr noundef nonnull @.str.366, i32 noundef %30)
  %31 = tail call noundef zeroext i1 @_ZN5ImGui15TableNextColumnEv()
  %32 = getelementptr inbounds nuw i8, ptr %0, i64 8
  %33 = load ptr, ptr %32, align 8, !tbaa !495
  tail call void @_ZN5ImGui15TextUnformattedEPKcS1_(ptr noundef %33, ptr noundef null)
  br label %34

34:                                               ; preds = %8, %._crit_edge, %25
  ret void
}